target datalayout = "e-m:e-p270:32:32-p271:32:32-p272:64:64-i64:64-i128:128-f80:128-n8:16:32:64-S128"
target triple = "x86_64-pc-linux-gnu"

; Function Attrs: nounwind uwtable
define dso_local void @matrix_mul_vect(i32 noundef %0, ptr noundef %1, ptr noundef %2, ptr noundef %3) #0 {
  %5 = alloca i32, align 4
  %6 = alloca ptr, align 8
  %7 = alloca ptr, align 8
  %8 = alloca ptr, align 8
  %9 = alloca i32, align 4
  %10 = alloca i32, align 4
  store i32 %0, ptr %5, align 4, !tbaa !16
  store ptr %1, ptr %6, align 8, !tbaa !18
  store ptr %2, ptr %7, align 8, !tbaa !20
  store ptr %3, ptr %8, align 8, !tbaa !20
  call void @llvm.lifetime.start.p0(i64 4, ptr %9) #3
  call void @llvm.lifetime.start.p0(i64 4, ptr %10) #3
  store i32 0, ptr %9, align 4, !tbaa !16
  br label %11

11:                                               ; preds = %52, %4
  %12 = load i32, ptr %9, align 4, !tbaa !16
  %13 = load i32, ptr %5, align 4, !tbaa !16
  %14 = icmp ult i32 %12, %13
  br i1 %14, label %15, label %55

15:                                               ; preds = %11
  %16 = load ptr, ptr %6, align 8, !tbaa !18
  %17 = load i32, ptr %9, align 4, !tbaa !16
  %18 = zext i32 %17 to i64
  %19 = getelementptr inbounds nuw i32, ptr %16, i64 %18
  store i32 0, ptr %19, align 4, !tbaa !16
  store i32 0, ptr %10, align 4, !tbaa !16
  br label %20

20:                                               ; preds = %48, %15
  %21 = load i32, ptr %10, align 4, !tbaa !16
  %22 = load i32, ptr %5, align 4, !tbaa !16
  %23 = icmp ult i32 %21, %22
  br i1 %23, label %24, label %51

24:                                               ; preds = %20
  %25 = load ptr, ptr %7, align 8, !tbaa !20
  %26 = load i32, ptr %9, align 4, !tbaa !16
  %27 = load i32, ptr %5, align 4, !tbaa !16
  %28 = mul i32 %26, %27
  %29 = load i32, ptr %10, align 4, !tbaa !16
  %30 = add i32 %28, %29
  %31 = zext i32 %30 to i64
  %32 = getelementptr inbounds nuw i16, ptr %25, i64 %31
  %33 = load i16, ptr %32, align 2, !tbaa !9
  %34 = sext i16 %33 to i32
  %35 = load ptr, ptr %8, align 8, !tbaa !20
  %36 = load i32, ptr %10, align 4, !tbaa !16
  %37 = zext i32 %36 to i64
  %38 = getelementptr inbounds nuw i16, ptr %35, i64 %37
  %39 = load i16, ptr %38, align 2, !tbaa !9
  %40 = sext i16 %39 to i32
  %41 = mul nsw i32 %34, %40
  %42 = load ptr, ptr %6, align 8, !tbaa !18
  %43 = load i32, ptr %9, align 4, !tbaa !16
  %44 = zext i32 %43 to i64
  %45 = getelementptr inbounds nuw i32, ptr %42, i64 %44
  %46 = load i32, ptr %45, align 4, !tbaa !16
  %47 = add nsw i32 %46, %41
  store i32 %47, ptr %45, align 4, !tbaa !16
  br label %48

48:                                               ; preds = %24
  %49 = load i32, ptr %10, align 4, !tbaa !16
  %50 = add i32 %49, 1
  store i32 %50, ptr %10, align 4, !tbaa !16
  br label %20, !llvm.loop !29

51:                                               ; preds = %20
  br label %52

52:                                               ; preds = %51
  %53 = load i32, ptr %9, align 4, !tbaa !16
  %54 = add i32 %53, 1
  store i32 %54, ptr %9, align 4, !tbaa !16
  br label %11, !llvm.loop !30

55:                                               ; preds = %11
  call void @llvm.lifetime.end.p0(i64 4, ptr %10) #3
  call void @llvm.lifetime.end.p0(i64 4, ptr %9) #3
  ret void
}