; Function Attrs: nofree norecurse nosync nounwind memory(argmem: readwrite) uwtable
define dso_local void @matrix_mul_vect(i32 noundef %0, ptr noundef writeonly captures(none) %1, ptr noundef readonly captures(none) %2, ptr noundef readonly captures(none) %3) local_unnamed_addr #2 {
  %.not = icmp eq i32 %0, 0
  br i1 %.not, label %._crit_edge, label %.lr.ph.preheader

.lr.ph.preheader:                                 ; preds = %4
  %wide.trip.count23 = zext i32 %0 to i64
  br label %.lr.ph

.lr.ph:                                           ; preds = %.lr.ph.preheader, %21
  %indvars.iv20 = phi i64 [ 0, %.lr.ph.preheader ], [ %indvars.iv.next21, %21 ]
  %5 = getelementptr inbounds nuw i32, ptr %1, i64 %indvars.iv20
  %6 = trunc nuw i64 %indvars.iv20 to i32
  %7 = mul i32 %0, %6
  br label %8

8:                                                ; preds = %.lr.ph, %8
  %indvars.iv = phi i64 [ 0, %.lr.ph ], [ %indvars.iv.next, %8 ]
  %9 = phi i32 [ 0, %.lr.ph ], [ %20, %8 ]
  %10 = trunc nuw i64 %indvars.iv to i32
  %11 = add i32 %7, %10
  %12 = zext i32 %11 to i64
  %13 = getelementptr inbounds nuw i16, ptr %2, i64 %12
  %14 = load i16, ptr %13, align 2, !tbaa !15
  %15 = sext i16 %14 to i32
  %16 = getelementptr inbounds nuw i16, ptr %3, i64 %indvars.iv
  %17 = load i16, ptr %16, align 2, !tbaa !15
  %18 = sext i16 %17 to i32
  %19 = mul nsw i32 %18, %15
  %20 = add nsw i32 %19, %9
  %indvars.iv.next = add nuw nsw i64 %indvars.iv, 1
  %exitcond.not = icmp eq i64 %indvars.iv.next, %wide.trip.count23
  br i1 %exitcond.not, label %21, label %8, !llvm.loop !25

21:                                               ; preds = %8
  store i32 %20, ptr %5, align 4, !tbaa !20
  %indvars.iv.next21 = add nuw nsw i64 %indvars.iv20, 1
  %exitcond24.not = icmp eq i64 %indvars.iv.next21, %wide.trip.count23
  br i1 %exitcond24.not, label %._crit_edge, label %.lr.ph, !llvm.loop !26

._crit_edge:                                      ; preds = %21, %4
  ret void
}